; Function Attrs: mustprogress nounwind uwtable
define hidden void @_ZN13NonJavaThread8Iterator4stepEv(ptr nocapture noundef nonnull align 8 dereferenceable(16) %0) local_unnamed_addr #0 align 2 {
  %2 = getelementptr inbounds i8, ptr %0, i64 8
  %3 = load ptr, ptr %2, align 8
  %4 = getelementptr inbounds i8, ptr %3, i64 888
  %5 = load volatile ptr, ptr %4, align 8
  tail call void asm sideeffect "", "~{memory},~{dirflag},~{fpsr},~{flags}"() #11, !srcloc !7
  store ptr %5, ptr %2, align 8
  ret void
}